target datalayout = "e-m:e-p270:32:32-p271:32:32-p272:64:64-i64:64-i128:128-f80:128-n8:16:32:64-S128"
target triple = "x86_64-pc-linux-gnu"

%struct._lv_menu_t = type { %struct._lv_obj_t, ptr, ptr, ptr, ptr, ptr, ptr, ptr, ptr, ptr, ptr, ptr, ptr, %struct.lv_ll_t, i8, i8, i8 }
%struct._lv_obj_t = type { ptr, ptr, ptr, ptr, ptr, %struct.lv_area_t, i32, i16, i16 }
%struct.lv_area_t = type { i32, i32, i32, i32 }
%struct.lv_ll_t = type { i32, ptr, ptr }

; Function Attrs: nounwind uwtable
define internal void @lv_menu_refr_sidebar_header_mode(ptr noundef %0) #0 {
  %2 = alloca ptr, align 8
  %3 = alloca ptr, align 8
  %4 = alloca i32, align 4
  store ptr %0, ptr %2, align 8, !tbaa !3
  br label %5

5:                                                ; preds = %1
  br label %6

6:                                                ; preds = %5
  call void @llvm.lifetime.start.p0(i64 8, ptr %3) #3
  %7 = load ptr, ptr %2, align 8, !tbaa !3
  store ptr %7, ptr %3, align 8, !tbaa !3
  %8 = load ptr, ptr %3, align 8, !tbaa !3
  %9 = getelementptr inbounds nuw %struct._lv_menu_t, ptr %8, i32 0, i32 9
  %10 = load ptr, ptr %9, align 8, !tbaa !17
  %11 = icmp eq ptr %10, null
  br i1 %11, label %17, label %12

12:                                               ; preds = %6
  %13 = load ptr, ptr %3, align 8, !tbaa !3
  %14 = getelementptr inbounds nuw %struct._lv_menu_t, ptr %13, i32 0, i32 8
  %15 = load ptr, ptr %14, align 8, !tbaa !20
  %16 = icmp eq ptr %15, null
  br i1 %16, label %17, label %18

17:                                               ; preds = %12, %6
  store i32 1, ptr %4, align 4
  br label %69

18:                                               ; preds = %12
  %19 = load ptr, ptr %3, align 8, !tbaa !3
  %20 = getelementptr inbounds nuw %struct._lv_menu_t, ptr %19, i32 0, i32 16
  %21 = load i8, ptr %20, align 2
  %22 = lshr i8 %21, 1
  %23 = and i8 %22, 3
  %24 = zext i8 %23 to i32
  switch i32 %24, label %46 [
    i32 0, label %25
    i32 1, label %32
    i32 2, label %39
  ]

25:                                               ; preds = %18
  %26 = load ptr, ptr %3, align 8, !tbaa !3
  %27 = getelementptr inbounds nuw %struct._lv_menu_t, ptr %26, i32 0, i32 9
  %28 = load ptr, ptr %27, align 8, !tbaa !17
  call void @lv_obj_move_to_index(ptr noundef %28, i32 noundef 0)
  %29 = load ptr, ptr %3, align 8, !tbaa !3
  %30 = getelementptr inbounds nuw %struct._lv_menu_t, ptr %29, i32 0, i32 8
  %31 = load ptr, ptr %30, align 8, !tbaa !20
  call void @lv_obj_set_flex_grow(ptr noundef %31, i8 noundef zeroext 1)
  br label %46

32:                                               ; preds = %18
  %33 = load ptr, ptr %3, align 8, !tbaa !3
  %34 = getelementptr inbounds nuw %struct._lv_menu_t, ptr %33, i32 0, i32 9
  %35 = load ptr, ptr %34, align 8, !tbaa !17
  call void @lv_obj_move_to_index(ptr noundef %35, i32 noundef 0)
  %36 = load ptr, ptr %3, align 8, !tbaa !3
  %37 = getelementptr inbounds nuw %struct._lv_menu_t, ptr %36, i32 0, i32 8
  %38 = load ptr, ptr %37, align 8, !tbaa !20
  call void @lv_obj_set_flex_grow(ptr noundef %38, i8 noundef zeroext 0)
  br label %46

39:                                               ; preds = %18
  %40 = load ptr, ptr %3, align 8, !tbaa !3
  %41 = getelementptr inbounds nuw %struct._lv_menu_t, ptr %40, i32 0, i32 9
  %42 = load ptr, ptr %41, align 8, !tbaa !17
  call void @lv_obj_move_to_index(ptr noundef %42, i32 noundef 1)
  %43 = load ptr, ptr %3, align 8, !tbaa !3
  %44 = getelementptr inbounds nuw %struct._lv_menu_t, ptr %43, i32 0, i32 8
  %45 = load ptr, ptr %44, align 8, !tbaa !20
  call void @lv_obj_set_flex_grow(ptr noundef %45, i8 noundef zeroext 1)
  br label %46

46:                                               ; preds = %18, %39, %32, %25
  %47 = load ptr, ptr %3, align 8, !tbaa !3
  %48 = getelementptr inbounds nuw %struct._lv_menu_t, ptr %47, i32 0, i32 9
  %49 = load ptr, ptr %48, align 8, !tbaa !17
  %50 = call zeroext i1 @lv_obj_refr_size(ptr noundef %49)
  %51 = load ptr, ptr %3, align 8, !tbaa !3
  %52 = getelementptr inbounds nuw %struct._lv_menu_t, ptr %51, i32 0, i32 8
  %53 = load ptr, ptr %52, align 8, !tbaa !20
  %54 = call zeroext i1 @lv_obj_refr_size(ptr noundef %53)
  %55 = load ptr, ptr %3, align 8, !tbaa !3
  %56 = getelementptr inbounds nuw %struct._lv_menu_t, ptr %55, i32 0, i32 9
  %57 = load ptr, ptr %56, align 8, !tbaa !17
  %58 = call i32 @lv_obj_get_content_height(ptr noundef %57)
  %59 = icmp eq i32 %58, 0
  br i1 %59, label %60, label %64

60:                                               ; preds = %46
  %61 = load ptr, ptr %3, align 8, !tbaa !3
  %62 = getelementptr inbounds nuw %struct._lv_menu_t, ptr %61, i32 0, i32 9
  %63 = load ptr, ptr %62, align 8, !tbaa !17
  call void @lv_obj_add_flag(ptr noundef %63, i32 noundef 1)
  br label %68

64:                                               ; preds = %46
  %65 = load ptr, ptr %3, align 8, !tbaa !3
  %66 = getelementptr inbounds nuw %struct._lv_menu_t, ptr %65, i32 0, i32 9
  %67 = load ptr, ptr %66, align 8, !tbaa !17
  call void @lv_obj_remove_flag(ptr noundef %67, i32 noundef 1)
  br label %68

68:                                               ; preds = %64, %60
  store i32 0, ptr %4, align 4
  br label %69

69:                                               ; preds = %68, %17
  call void @llvm.lifetime.end.p0(i64 8, ptr %3) #3
  %70 = load i32, ptr %4, align 4
  switch i32 %70, label %72 [
    i32 0, label %71
    i32 1, label %71
  ]

71:                                               ; preds = %69, %69
  ret void

72:                                               ; preds = %69
  unreachable
}