; Function Attrs: nounwind uwtable
define internal fastcc void @lv_menu_refr_sidebar_header_mode(ptr nocapture noundef readonly %0) unnamed_addr #0 {
  %2 = getelementptr inbounds nuw i8, ptr %0, i64 128
  %3 = load ptr, ptr %2, align 8, !tbaa !32
  %4 = icmp eq ptr %3, null
  br i1 %4, label %28, label %5

5:                                                ; preds = %1
  %6 = getelementptr inbounds nuw i8, ptr %0, i64 120
  %7 = load ptr, ptr %6, align 8, !tbaa !29
  %8 = icmp eq ptr %7, null
  br i1 %8, label %28, label %9

9:                                                ; preds = %5
  %10 = getelementptr inbounds nuw i8, ptr %0, i64 186
  %11 = load i8, ptr %10, align 2
  %12 = lshr i8 %11, 1
  %13 = and i8 %12, 3
  switch i8 %13, label %default.unreachable15 [
    i8 0, label %.sink.split
    i8 1, label %14
    i8 2, label %15
    i8 3, label %17
  ]

14:                                               ; preds = %9
  br label %.sink.split

15:                                               ; preds = %9
  br label %.sink.split

default.unreachable15:                            ; preds = %9
  unreachable

.sink.split:                                      ; preds = %9, %14, %15
  %.sink = phi i32 [ 1, %15 ], [ 0, %14 ], [ 0, %9 ]
  %.sink16 = phi i8 [ 1, %15 ], [ 0, %14 ], [ 1, %9 ]
  tail call void @lv_obj_move_to_index(ptr noundef nonnull %3, i32 noundef %.sink) #4
  %16 = load ptr, ptr %6, align 8, !tbaa !29
  tail call void @lv_obj_set_flex_grow(ptr noundef %16, i8 noundef zeroext %.sink16) #4
  br label %17

17:                                               ; preds = %.sink.split, %9
  %18 = load ptr, ptr %2, align 8, !tbaa !32
  %19 = tail call zeroext i1 @lv_obj_refr_size(ptr noundef %18) #4
  %20 = load ptr, ptr %6, align 8, !tbaa !29
  %21 = tail call zeroext i1 @lv_obj_refr_size(ptr noundef %20) #4
  %22 = load ptr, ptr %2, align 8, !tbaa !32
  %23 = tail call i32 @lv_obj_get_content_height(ptr noundef %22) #4
  %24 = icmp eq i32 %23, 0
  %25 = load ptr, ptr %2, align 8, !tbaa !32
  br i1 %24, label %26, label %27

26:                                               ; preds = %17
  tail call void @lv_obj_add_flag(ptr noundef %25, i32 noundef 1) #4
  br label %28

27:                                               ; preds = %17
  tail call void @lv_obj_remove_flag(ptr noundef %25, i32 noundef 1) #4
  br label %28

28:                                               ; preds = %26, %27, %1, %5
  ret void
}